target datalayout = "e-m:e-p270:32:32-p271:32:32-p272:64:64-i64:64-i128:128-f80:128-n8:16:32:64-S128"
target triple = "x86_64-pc-linux-gnu"

; Function Attrs: nounwind uwtable
define internal i32 @x509_inet_pton_ipv6(ptr noundef %0, ptr noundef %1) #0 {
  %3 = alloca ptr, align 8
  %4 = alloca ptr, align 8
  store ptr %0, ptr %3, align 8, !tbaa !8
  store ptr %1, ptr %4, align 8, !tbaa !14
  %5 = load ptr, ptr %3, align 8, !tbaa !8
  %6 = load ptr, ptr %4, align 8, !tbaa !14
  %7 = call i32 @inet_pton(i32 noundef 10, ptr noundef %5, ptr noundef %6) #10
  %8 = icmp eq i32 %7, 1
  %9 = select i1 %8, i32 0, i32 -1
  ret i32 %9
}

; Function Attrs: nounwind uwtable
define internal i32 @x509_inet_pton_ipv4(ptr noundef %0, ptr noundef %1) #0 {
  %3 = alloca ptr, align 8
  %4 = alloca ptr, align 8
  store ptr %0, ptr %3, align 8, !tbaa !8
  store ptr %1, ptr %4, align 8, !tbaa !14
  %5 = load ptr, ptr %3, align 8, !tbaa !8
  %6 = load ptr, ptr %4, align 8, !tbaa !14
  %7 = call i32 @inet_pton(i32 noundef 2, ptr noundef %5, ptr noundef %6) #10
  %8 = icmp eq i32 %7, 1
  %9 = select i1 %8, i32 0, i32 -1
  ret i32 %9
}

; Function Attrs: nounwind uwtable
define hidden i64 @mbedtls_x509_crt_parse_cn_inet_pton(ptr noundef %0, ptr noundef %1) #0 {
  %3 = alloca ptr, align 8
  %4 = alloca ptr, align 8
  store ptr %0, ptr %3, align 8, !tbaa !8
  store ptr %1, ptr %4, align 8, !tbaa !14
  %5 = load ptr, ptr %3, align 8, !tbaa !8
  %6 = call ptr @strchr(ptr noundef %5, i32 noundef 58) #12
  %7 = icmp eq ptr %6, null
  br i1 %7, label %8, label %14

8:                                                ; preds = %2
  %9 = load ptr, ptr %3, align 8, !tbaa !8
  %10 = load ptr, ptr %4, align 8, !tbaa !14
  %11 = call i32 @x509_inet_pton_ipv4(ptr noundef %9, ptr noundef %10)
  %12 = icmp eq i32 %11, 0
  %13 = select i1 %12, i32 4, i32 0
  br label %20

14:                                               ; preds = %2
  %15 = load ptr, ptr %3, align 8, !tbaa !8
  %16 = load ptr, ptr %4, align 8, !tbaa !14
  %17 = call i32 @x509_inet_pton_ipv6(ptr noundef %15, ptr noundef %16)
  %18 = icmp eq i32 %17, 0
  %19 = select i1 %18, i32 16, i32 0
  br label %20

20:                                               ; preds = %14, %8
  %21 = phi i32 [ %13, %8 ], [ %19, %14 ]
  %22 = sext i32 %21 to i64
  ret i64 %22
}