; Function Attrs: nounwind uwtable
define hidden range(i64 0, 17) i64 @mbedtls_x509_crt_parse_cn_inet_pton(ptr noundef %0, ptr noundef %1) local_unnamed_addr #0 {
  %3 = tail call ptr @strchr(ptr noundef nonnull dereferenceable(1) %0, i32 noundef 58) #18
  %4 = icmp eq ptr %3, null
  %. = select i1 %4, i32 2, i32 10
  %.8 = select i1 %4, i64 4, i64 16
  %5 = tail call i32 @inet_pton(i32 noundef %., ptr noundef nonnull %0, ptr noundef %1) #17
  %.not = icmp eq i32 %5, 1
  %6 = select i1 %.not, i64 %.8, i64 0
  ret i64 %6
}